; Function Attrs: mustprogress nounwind uwtable
define dso_local noundef zeroext i1 @_ZeqRK17cmListFileContextS1_(ptr noundef nonnull align 8 dereferenceable(112) %0, ptr noundef nonnull align 8 dereferenceable(112) %1) local_unnamed_addr #4 personality ptr @__gxx_personality_v0 {
  %3 = getelementptr inbounds i8, ptr %0, i64 64
  %4 = load i64, ptr %3, align 8
  %5 = getelementptr inbounds i8, ptr %1, i64 64
  %6 = load i64, ptr %5, align 8
  %7 = icmp eq i64 %4, %6
  br i1 %7, label %8, label %_ZSteqIcEN9__gnu_cxx11__enable_ifIXsr9__is_charIT_EE7__valueEbE6__typeERKNSt7__cxx1112basic_stringIS2_St11char_traitsIS2_ESaIS2_EEESC_.exit

8:                                                ; preds = %2
  %9 = getelementptr inbounds i8, ptr %0, i64 32
  %10 = getelementptr inbounds i8, ptr %1, i64 32
  %11 = tail call noundef i64 @_ZNKSt7__cxx1112basic_stringIcSt11char_traitsIcESaIcEE4sizeEv(ptr noundef nonnull align 8 dereferenceable(32) %9) #17
  %12 = tail call noundef i64 @_ZNKSt7__cxx1112basic_stringIcSt11char_traitsIcESaIcEE4sizeEv(ptr noundef nonnull align 8 dereferenceable(32) %10) #17
  %13 = icmp eq i64 %11, %12
  br i1 %13, label %14, label %_ZSteqIcEN9__gnu_cxx11__enable_ifIXsr9__is_charIT_EE7__valueEbE6__typeERKNSt7__cxx1112basic_stringIS2_St11char_traitsIS2_ESaIS2_EEESC_.exit

14:                                               ; preds = %8
  %15 = tail call noundef ptr @_ZNKSt7__cxx1112basic_stringIcSt11char_traitsIcESaIcEE4dataEv(ptr noundef nonnull align 8 dereferenceable(32) %9) #17
  %16 = tail call noundef ptr @_ZNKSt7__cxx1112basic_stringIcSt11char_traitsIcESaIcEE4dataEv(ptr noundef nonnull align 8 dereferenceable(32) %10) #17
  %17 = tail call noundef i64 @_ZNKSt7__cxx1112basic_stringIcSt11char_traitsIcESaIcEE4sizeEv(ptr noundef nonnull align 8 dereferenceable(32) %9) #17
  %18 = icmp eq i64 %17, 0
  br i1 %18, label %_ZSteqIcEN9__gnu_cxx11__enable_ifIXsr9__is_charIT_EE7__valueEbE6__typeERKNSt7__cxx1112basic_stringIS2_St11char_traitsIS2_ESaIS2_EEESC_.exit, label %19

19:                                               ; preds = %14
  %bcmp.i = tail call i32 @bcmp(ptr %15, ptr %16, i64 %17)
  %20 = icmp eq i32 %bcmp.i, 0
  br label %_ZSteqIcEN9__gnu_cxx11__enable_ifIXsr9__is_charIT_EE7__valueEbE6__typeERKNSt7__cxx1112basic_stringIS2_St11char_traitsIS2_ESaIS2_EEESC_.exit

_ZSteqIcEN9__gnu_cxx11__enable_ifIXsr9__is_charIT_EE7__valueEbE6__typeERKNSt7__cxx1112basic_stringIS2_St11char_traitsIS2_ESaIS2_EEESC_.exit: ; preds = %19, %14, %8, %2
  %21 = phi i1 [ false, %2 ], [ false, %8 ], [ %20, %19 ], [ true, %14 ]
  ret i1 %21
}